target datalayout = "e-m:e-p270:32:32-p271:32:32-p272:64:64-i64:64-i128:128-f80:128-n8:16:32:64-S128"
target triple = "x86_64-unknown-linux-gnu"

%struct.VMStateDescription = type { ptr, i8, i8, i32, i32, i32, ptr, ptr, ptr, ptr, ptr, ptr, ptr, ptr }
%struct.DeviceClass = type { %struct.ObjectClass, [1 x i64], ptr, ptr, ptr, i8, i8, ptr, ptr, ptr, ptr, ptr }
%struct.ObjectClass = type { ptr, ptr, [4 x ptr], [4 x ptr], ptr, ptr }
%struct.SCSIDeviceClass = type { %struct.DeviceClass, ptr, ptr, ptr, ptr, ptr }

@.str.1 = private unnamed_addr constant [12 x i8] c"scsi-device\00", align 1
@.str.3 = private unnamed_addr constant [7 x i8] c"device\00", align 1
@.str.4 = private unnamed_addr constant [101 x i8] c"/home/dtcxzyw/WorkSpace/Projects/compilers/llvm-opt-benchmark/bench/qemu/qemu/include/hw/qdev-core.h\00", align 1
@__func__.DEVICE_CLASS = private unnamed_addr constant [13 x i8] c"DEVICE_CLASS\00", align 1
@.str.7 = private unnamed_addr constant [18 x i8] c"virtual SCSI disk\00", align 1
@vmstate_scsi_disk_state = internal constant %struct.VMStateDescription { ptr @.str.129, i8 0, i8 0, i32 1, i32 1, i32 0, ptr null, ptr null, ptr null, ptr null, ptr null, ptr null, ptr @.compoundliteral, ptr null }, align 8
@.str.8 = private unnamed_addr constant [101 x i8] c"/home/dtcxzyw/WorkSpace/Projects/compilers/llvm-opt-benchmark/bench/qemu/qemu/include/hw/scsi/scsi.h\00", align 1
@__func__.SCSI_DEVICE_CLASS = private unnamed_addr constant [18 x i8] c"SCSI_DEVICE_CLASS\00", align 1

; Function Attrs: nounwind sspstrong uwtable
define internal ptr @SCSI_DEVICE_CLASS(ptr noundef %klass) #0 {
entry:
  %klass.addr = alloca ptr, align 8
  store ptr %klass, ptr %klass.addr, align 8
  %0 = load ptr, ptr %klass.addr, align 8
  %call = call ptr @object_class_dynamic_cast_assert(ptr noundef %0, ptr noundef @.str.1, ptr noundef @.str.8, i32 noundef 55, ptr noundef @__func__.SCSI_DEVICE_CLASS)
  ret ptr %call
}

; Function Attrs: nounwind sspstrong uwtable
define internal ptr @DEVICE_CLASS(ptr noundef %klass) #0 {
entry:
  %klass.addr = alloca ptr, align 8
  store ptr %klass, ptr %klass.addr, align 8
  %0 = load ptr, ptr %klass.addr, align 8
  %call = call ptr @object_class_dynamic_cast_assert(ptr noundef %0, ptr noundef @.str.3, ptr noundef @.str.4, i32 noundef 77, ptr noundef @__func__.DEVICE_CLASS)
  ret ptr %call
}

; Function Attrs: nounwind sspstrong uwtable
define internal void @scsi_hd_class_initfn(ptr noundef %klass, ptr noundef %data) #0 {
entry:
  %klass.addr = alloca ptr, align 8
  %data.addr = alloca ptr, align 8
  %dc = alloca ptr, align 8
  %sc = alloca ptr, align 8
  store ptr %klass, ptr %klass.addr, align 8
  store ptr %data, ptr %data.addr, align 8
  %0 = load ptr, ptr %klass.addr, align 8
  %call = call ptr @DEVICE_CLASS(ptr noundef %0)
  store ptr %call, ptr %dc, align 8
  %1 = load ptr, ptr %klass.addr, align 8
  %call1 = call ptr @SCSI_DEVICE_CLASS(ptr noundef %1)
  store ptr %call1, ptr %sc, align 8
  %2 = load ptr, ptr %sc, align 8
  %realize = getelementptr inbounds %struct.SCSIDeviceClass, ptr %2, i32 0, i32 1
  store ptr @scsi_hd_realize, ptr %realize, align 8
  %3 = load ptr, ptr %sc, align 8
  %unrealize = getelementptr inbounds %struct.SCSIDeviceClass, ptr %3, i32 0, i32 2
  store ptr @scsi_unrealize, ptr %unrealize, align 8
  %4 = load ptr, ptr %sc, align 8
  %alloc_req = getelementptr inbounds %struct.SCSIDeviceClass, ptr %4, i32 0, i32 4
  store ptr @scsi_new_request, ptr %alloc_req, align 8
  %5 = load ptr, ptr %sc, align 8
  %unit_attention_reported = getelementptr inbounds %struct.SCSIDeviceClass, ptr %5, i32 0, i32 5
  store ptr @scsi_disk_unit_attention_reported, ptr %unit_attention_reported, align 8
  %6 = load ptr, ptr %dc, align 8
  %desc = getelementptr inbounds %struct.DeviceClass, ptr %6, i32 0, i32 3
  store ptr @.str.7, ptr %desc, align 8
  %7 = load ptr, ptr %dc, align 8
  call void @device_class_set_props(ptr noundef %7, ptr noundef @scsi_hd_properties)
  %8 = load ptr, ptr %dc, align 8
  %vmsd = getelementptr inbounds %struct.DeviceClass, ptr %8, i32 0, i32 10
  store ptr @vmstate_scsi_disk_state, ptr %vmsd, align 8
  ret void
}