; Function Attrs: nounwind sspstrong uwtable
define internal void @scsi_hd_class_initfn(ptr noundef %klass, ptr readnone captures(none) %data) #0 {
entry:
  %call.i = tail call ptr @object_class_dynamic_cast_assert(ptr noundef %klass, ptr noundef nonnull @.str.3, ptr noundef nonnull @.str.4, i32 noundef 77, ptr noundef nonnull @__func__.DEVICE_CLASS) #18
  %call.i7 = tail call ptr @object_class_dynamic_cast_assert(ptr noundef %klass, ptr noundef nonnull @.str.1, ptr noundef nonnull @.str.8, i32 noundef 55, ptr noundef nonnull @__func__.SCSI_DEVICE_CLASS) #18
  %realize = getelementptr inbounds nuw i8, ptr %call.i7, i64 176
  store ptr @scsi_hd_realize, ptr %realize, align 8
  %unrealize = getelementptr inbounds nuw i8, ptr %call.i7, i64 184
  store ptr @scsi_unrealize, ptr %unrealize, align 8
  %alloc_req = getelementptr inbounds nuw i8, ptr %call.i7, i64 200
  store ptr @scsi_new_request, ptr %alloc_req, align 8
  %unit_attention_reported = getelementptr inbounds nuw i8, ptr %call.i7, i64 208
  store ptr @scsi_disk_unit_attention_reported, ptr %unit_attention_reported, align 8
  %desc = getelementptr inbounds nuw i8, ptr %call.i, i64 112
  store ptr @.str.7, ptr %desc, align 8
  tail call void @device_class_set_props(ptr noundef %call.i, ptr noundef nonnull @scsi_hd_properties) #18
  %vmsd = getelementptr inbounds nuw i8, ptr %call.i, i64 160
  store ptr @vmstate_scsi_disk_state, ptr %vmsd, align 8
  ret void
}